target datalayout = "e-m:e-p270:32:32-p271:32:32-p272:64:64-i64:64-i128:128-f80:128-n8:16:32:64-S128"
target triple = "x86_64-pc-linux-gnu"

%struct.png_struct_def = type { [1 x %struct.__jmp_buf_tag], ptr, ptr, i64, ptr, ptr, ptr, ptr, ptr, ptr, ptr, ptr, ptr, i8, i8, i32, i32, i32, i32, %struct.z_stream_s, ptr, i32, i32, i32, i32, i32, i32, i32, i32, i32, i32, i32, i32, i32, i32, i32, i32, i32, i32, i32, i32, i32, i64, i32, i32, i32, ptr, ptr, ptr, ptr, i64, i32, i32, ptr, i16, i32, i16, i8, i8, i8, i8, i8, i8, i8, i8, i8, i8, i8, i8, i8, i8, i8, i16, i8, i32, %struct.png_color_16_struct, %struct.png_color_16_struct, ptr, i32, i32, %struct.png_xy, i32, i32, i32, i32, i32, ptr, ptr, ptr, ptr, ptr, ptr, %struct.png_color_8_struct, %struct.png_color_8_struct, ptr, %struct.png_color_16_struct, ptr, ptr, ptr, ptr, ptr, ptr, ptr, ptr, ptr, i32, i32, i64, i64, i64, i64, i32, i32, ptr, ptr, i32, [29 x i8], i32, ptr, ptr, i32, i32, ptr, i8, i8, i16, i16, ptr, i32, i8, ptr, ptr, ptr, ptr, ptr, ptr, ptr, i8, i32, i32, i32, i64, %struct.png_unknown_chunk_t, i64, ptr, i64, i32, i32, ptr, [4 x ptr] }
%struct.__jmp_buf_tag = type { [8 x i64], i32, %struct.__sigset_t }
%struct.__sigset_t = type { [16 x i64] }
%struct.z_stream_s = type { ptr, i32, i64, ptr, i32, i64, ptr, ptr, ptr, ptr, ptr, i32, i64, i64 }
%struct.png_xy = type { i32, i32, i32, i32, i32, i32, i32, i32 }
%struct.png_color_8_struct = type { i8, i8, i8, i8, i8 }
%struct.png_color_16_struct = type { i8, i16, i16, i16, i16 }
%struct.png_unknown_chunk_t = type { [5 x i8], ptr, i64, i8 }

@.str.22 = private unnamed_addr constant [14 x i8] c"out of memory\00", align 1
@.str.44 = private unnamed_addr constant [13 x i8] c"invalid unit\00", align 1
@.str.45 = private unnamed_addr constant [17 x i8] c"bad width format\00", align 1
@.str.46 = private unnamed_addr constant [19 x i8] c"non-positive width\00", align 1
@.str.47 = private unnamed_addr constant [18 x i8] c"bad height format\00", align 1
@.str.48 = private unnamed_addr constant [20 x i8] c"non-positive height\00", align 1

; Function Attrs: nounwind uwtable
define void @png_crc_read(ptr noalias noundef %0, ptr noundef %1, i32 noundef %2) #0 {
  %4 = alloca ptr, align 8
  %5 = alloca ptr, align 8
  %6 = alloca i32, align 4
  store ptr %0, ptr %4, align 8, !tbaa !3
  store ptr %1, ptr %5, align 8, !tbaa !8
  store i32 %2, ptr %6, align 4, !tbaa !11
  %7 = load ptr, ptr %4, align 8, !tbaa !3
  %8 = icmp eq ptr %7, null
  br i1 %8, label %9, label %10

9:                                                ; preds = %3
  br label %19

10:                                               ; preds = %3
  %11 = load ptr, ptr %4, align 8, !tbaa !3
  %12 = load ptr, ptr %5, align 8, !tbaa !8
  %13 = load i32, ptr %6, align 4, !tbaa !11
  %14 = zext i32 %13 to i64
  call void @png_read_data(ptr noundef %11, ptr noundef %12, i64 noundef %14)
  %15 = load ptr, ptr %4, align 8, !tbaa !3
  %16 = load ptr, ptr %5, align 8, !tbaa !8
  %17 = load i32, ptr %6, align 4, !tbaa !11
  %18 = zext i32 %17 to i64
  call void @png_calculate_crc(ptr noundef %15, ptr noundef %16, i64 noundef %18)
  br label %19

19:                                               ; preds = %10, %9
  ret void
}

; Function Attrs: nounwind uwtable
define i32 @png_crc_finish(ptr noalias noundef %0, i32 noundef %1) #0 {
  %3 = alloca ptr, align 8
  %4 = alloca i32, align 4
  store ptr %0, ptr %3, align 8, !tbaa !3
  store i32 %1, ptr %4, align 4, !tbaa !11
  %5 = load ptr, ptr %3, align 8, !tbaa !3
  %6 = load i32, ptr %4, align 4, !tbaa !11
  %7 = call i32 @png_crc_finish_critical(ptr noundef %5, i32 noundef %6, i32 noundef 0)
  ret i32 %7
}

; Function Attrs: nounwind uwtable
define internal ptr @png_read_buffer(ptr noalias noundef %0, i64 noundef %1) #0 {
  %3 = alloca ptr, align 8
  %4 = alloca ptr, align 8
  %5 = alloca i64, align 8
  %6 = alloca ptr, align 8
  %7 = alloca i32, align 4
  store ptr %0, ptr %4, align 8, !tbaa !3
  store i64 %1, ptr %5, align 8, !tbaa !29
  call void @llvm.lifetime.start.p0(i64 8, ptr %6) #7
  %8 = load ptr, ptr %4, align 8, !tbaa !3
  %9 = getelementptr inbounds nuw %struct.png_struct_def, ptr %8, i32 0, i32 144
  %10 = load ptr, ptr %9, align 8, !tbaa !91
  store ptr %10, ptr %6, align 8, !tbaa !8
  %11 = load i64, ptr %5, align 8, !tbaa !29
  %12 = load ptr, ptr %4, align 8, !tbaa !3
  %13 = getelementptr inbounds nuw %struct.png_struct_def, ptr %12, i32 0, i32 141
  %14 = load i64, ptr %13, align 8, !tbaa !44
  %15 = icmp ugt i64 %11, %14
  br i1 %15, label %16, label %17

16:                                               ; preds = %2
  store ptr null, ptr %3, align 8
  store i32 1, ptr %7, align 4
  br label %54

17:                                               ; preds = %2
  %18 = load ptr, ptr %6, align 8, !tbaa !8
  %19 = icmp ne ptr %18, null
  br i1 %19, label %20, label %33

20:                                               ; preds = %17
  %21 = load i64, ptr %5, align 8, !tbaa !29
  %22 = load ptr, ptr %4, align 8, !tbaa !3
  %23 = getelementptr inbounds nuw %struct.png_struct_def, ptr %22, i32 0, i32 145
  %24 = load i64, ptr %23, align 8, !tbaa !92
  %25 = icmp ugt i64 %21, %24
  br i1 %25, label %26, label %33

26:                                               ; preds = %20
  %27 = load ptr, ptr %4, align 8, !tbaa !3
  %28 = getelementptr inbounds nuw %struct.png_struct_def, ptr %27, i32 0, i32 144
  store ptr null, ptr %28, align 8, !tbaa !91
  %29 = load ptr, ptr %4, align 8, !tbaa !3
  %30 = getelementptr inbounds nuw %struct.png_struct_def, ptr %29, i32 0, i32 145
  store i64 0, ptr %30, align 8, !tbaa !92
  %31 = load ptr, ptr %4, align 8, !tbaa !3
  %32 = load ptr, ptr %6, align 8, !tbaa !8
  call void @png_free(ptr noundef %31, ptr noundef %32)
  store ptr null, ptr %6, align 8, !tbaa !8
  br label %33

33:                                               ; preds = %26, %20, %17
  %34 = load ptr, ptr %6, align 8, !tbaa !8
  %35 = icmp eq ptr %34, null
  br i1 %35, label %36, label %52

36:                                               ; preds = %33
  %37 = load ptr, ptr %4, align 8, !tbaa !3
  %38 = load i64, ptr %5, align 8, !tbaa !29
  %39 = call noalias ptr @png_malloc_base(ptr noundef %37, i64 noundef %38)
  store ptr %39, ptr %6, align 8, !tbaa !8
  %40 = load ptr, ptr %6, align 8, !tbaa !8
  %41 = icmp ne ptr %40, null
  br i1 %41, label %42, label %51

42:                                               ; preds = %36
  %43 = load ptr, ptr %6, align 8, !tbaa !8
  %44 = load i64, ptr %5, align 8, !tbaa !29
  call void @llvm.memset.p0.i64(ptr align 1 %43, i8 0, i64 %44, i1 false)
  %45 = load ptr, ptr %6, align 8, !tbaa !8
  %46 = load ptr, ptr %4, align 8, !tbaa !3
  %47 = getelementptr inbounds nuw %struct.png_struct_def, ptr %46, i32 0, i32 144
  store ptr %45, ptr %47, align 8, !tbaa !91
  %48 = load i64, ptr %5, align 8, !tbaa !29
  %49 = load ptr, ptr %4, align 8, !tbaa !3
  %50 = getelementptr inbounds nuw %struct.png_struct_def, ptr %49, i32 0, i32 145
  store i64 %48, ptr %50, align 8, !tbaa !92
  br label %51

51:                                               ; preds = %42, %36
  br label %52

52:                                               ; preds = %51, %33
  %53 = load ptr, ptr %6, align 8, !tbaa !8
  store ptr %53, ptr %3, align 8
  store i32 1, ptr %7, align 4
  br label %54

54:                                               ; preds = %52, %16
  call void @llvm.lifetime.end.p0(i64 8, ptr %6) #7
  %55 = load ptr, ptr %3, align 8
  ret ptr %55
}

; Function Attrs: nounwind uwtable
define internal i32 @png_handle_sCAL(ptr noalias noundef %0, ptr noalias noundef %1, i32 noundef %2) #0 {
  %4 = alloca i32, align 4
  %5 = alloca ptr, align 8
  %6 = alloca ptr, align 8
  %7 = alloca i32, align 4
  %8 = alloca ptr, align 8
  %9 = alloca i64, align 8
  %10 = alloca i32, align 4
  %11 = alloca i32, align 4
  %12 = alloca i64, align 8
  store ptr %0, ptr %5, align 8, !tbaa !3
  store ptr %1, ptr %6, align 8, !tbaa !13
  store i32 %2, ptr %7, align 4, !tbaa !11
  call void @llvm.lifetime.start.p0(i64 8, ptr %8) #7
  call void @llvm.lifetime.start.p0(i64 8, ptr %9) #7
  call void @llvm.lifetime.start.p0(i64 4, ptr %10) #7
  %13 = load ptr, ptr %5, align 8, !tbaa !3
  %14 = load i32, ptr %7, align 4, !tbaa !11
  %15 = add i32 %14, 1
  %16 = zext i32 %15 to i64
  %17 = call ptr @png_read_buffer(ptr noundef %13, i64 noundef %16)
  store ptr %17, ptr %8, align 8, !tbaa !8
  %18 = load ptr, ptr %8, align 8, !tbaa !8
  %19 = icmp eq ptr %18, null
  br i1 %19, label %20, label %25

20:                                               ; preds = %3
  %21 = load ptr, ptr %5, align 8, !tbaa !3
  %22 = load i32, ptr %7, align 4, !tbaa !11
  %23 = call i32 @png_crc_finish(ptr noundef %21, i32 noundef %22)
  %24 = load ptr, ptr %5, align 8, !tbaa !3
  call void @png_chunk_benign_error(ptr noundef %24, ptr noundef @.str.22)
  store i32 0, ptr %4, align 4
  store i32 1, ptr %11, align 4
  br label %121

25:                                               ; preds = %3
  %26 = load ptr, ptr %5, align 8, !tbaa !3
  %27 = load ptr, ptr %8, align 8, !tbaa !8
  %28 = load i32, ptr %7, align 4, !tbaa !11
  call void @png_crc_read(ptr noundef %26, ptr noundef %27, i32 noundef %28)
  %29 = load ptr, ptr %8, align 8, !tbaa !8
  %30 = load i32, ptr %7, align 4, !tbaa !11
  %31 = zext i32 %30 to i64
  %32 = getelementptr inbounds nuw i8, ptr %29, i64 %31
  store i8 0, ptr %32, align 1, !tbaa !10
  %33 = load ptr, ptr %5, align 8, !tbaa !3
  %34 = call i32 @png_crc_finish(ptr noundef %33, i32 noundef 0)
  %35 = icmp ne i32 %34, 0
  br i1 %35, label %36, label %37

36:                                               ; preds = %25
  store i32 0, ptr %4, align 4
  store i32 1, ptr %11, align 4
  br label %121

37:                                               ; preds = %25
  %38 = load ptr, ptr %8, align 8, !tbaa !8
  %39 = getelementptr inbounds i8, ptr %38, i64 0
  %40 = load i8, ptr %39, align 1, !tbaa !10
  %41 = zext i8 %40 to i32
  %42 = icmp ne i32 %41, 1
  br i1 %42, label %43, label %51

43:                                               ; preds = %37
  %44 = load ptr, ptr %8, align 8, !tbaa !8
  %45 = getelementptr inbounds i8, ptr %44, i64 0
  %46 = load i8, ptr %45, align 1, !tbaa !10
  %47 = zext i8 %46 to i32
  %48 = icmp ne i32 %47, 2
  br i1 %48, label %49, label %51

49:                                               ; preds = %43
  %50 = load ptr, ptr %5, align 8, !tbaa !3
  call void @png_chunk_benign_error(ptr noundef %50, ptr noundef @.str.44)
  store i32 0, ptr %4, align 4
  store i32 1, ptr %11, align 4
  br label %121

51:                                               ; preds = %43, %37
  store i64 1, ptr %9, align 8, !tbaa !29
  store i32 0, ptr %10, align 4, !tbaa !11
  %52 = load ptr, ptr %8, align 8, !tbaa !8
  %53 = load i32, ptr %7, align 4, !tbaa !11
  %54 = zext i32 %53 to i64
  %55 = call i32 @png_check_fp_number(ptr noundef %52, i64 noundef %54, ptr noundef %10, ptr noundef %9)
  %56 = icmp eq i32 %55, 0
  br i1 %56, label %70, label %57

57:                                               ; preds = %51
  %58 = load i64, ptr %9, align 8, !tbaa !29
  %59 = load i32, ptr %7, align 4, !tbaa !11
  %60 = zext i32 %59 to i64
  %61 = icmp uge i64 %58, %60
  br i1 %61, label %70, label %62

62:                                               ; preds = %57
  %63 = load ptr, ptr %8, align 8, !tbaa !8
  %64 = load i64, ptr %9, align 8, !tbaa !29
  %65 = add i64 %64, 1
  store i64 %65, ptr %9, align 8, !tbaa !29
  %66 = getelementptr inbounds nuw i8, ptr %63, i64 %64
  %67 = load i8, ptr %66, align 1, !tbaa !10
  %68 = zext i8 %67 to i32
  %69 = icmp ne i32 %68, 0
  br i1 %69, label %70, label %72

70:                                               ; preds = %62, %57, %51
  %71 = load ptr, ptr %5, align 8, !tbaa !3
  call void @png_chunk_benign_error(ptr noundef %71, ptr noundef @.str.45)
  br label %120

72:                                               ; preds = %62
  %73 = load i32, ptr %10, align 4, !tbaa !11
  %74 = and i32 %73, 392
  %75 = icmp eq i32 %74, 264
  %76 = zext i1 %75 to i32
  %77 = icmp eq i32 %76, 0
  br i1 %77, label %78, label %80

78:                                               ; preds = %72
  %79 = load ptr, ptr %5, align 8, !tbaa !3
  call void @png_chunk_benign_error(ptr noundef %79, ptr noundef @.str.46)
  br label %119

80:                                               ; preds = %72
  call void @llvm.lifetime.start.p0(i64 8, ptr %12) #7
  %81 = load i64, ptr %9, align 8, !tbaa !29
  store i64 %81, ptr %12, align 8, !tbaa !29
  store i32 0, ptr %10, align 4, !tbaa !11
  %82 = load ptr, ptr %8, align 8, !tbaa !8
  %83 = load i32, ptr %7, align 4, !tbaa !11
  %84 = zext i32 %83 to i64
  %85 = call i32 @png_check_fp_number(ptr noundef %82, i64 noundef %84, ptr noundef %10, ptr noundef %9)
  %86 = icmp eq i32 %85, 0
  br i1 %86, label %92, label %87

87:                                               ; preds = %80
  %88 = load i64, ptr %9, align 8, !tbaa !29
  %89 = load i32, ptr %7, align 4, !tbaa !11
  %90 = zext i32 %89 to i64
  %91 = icmp ne i64 %88, %90
  br i1 %91, label %92, label %94

92:                                               ; preds = %87, %80
  %93 = load ptr, ptr %5, align 8, !tbaa !3
  call void @png_chunk_benign_error(ptr noundef %93, ptr noundef @.str.47)
  br label %115

94:                                               ; preds = %87
  %95 = load i32, ptr %10, align 4, !tbaa !11
  %96 = and i32 %95, 392
  %97 = icmp eq i32 %96, 264
  %98 = zext i1 %97 to i32
  %99 = icmp eq i32 %98, 0
  br i1 %99, label %100, label %102

100:                                              ; preds = %94
  %101 = load ptr, ptr %5, align 8, !tbaa !3
  call void @png_chunk_benign_error(ptr noundef %101, ptr noundef @.str.48)
  br label %114

102:                                              ; preds = %94
  %103 = load ptr, ptr %5, align 8, !tbaa !3
  %104 = load ptr, ptr %6, align 8, !tbaa !13
  %105 = load ptr, ptr %8, align 8, !tbaa !8
  %106 = getelementptr inbounds i8, ptr %105, i64 0
  %107 = load i8, ptr %106, align 1, !tbaa !10
  %108 = zext i8 %107 to i32
  %109 = load ptr, ptr %8, align 8, !tbaa !8
  %110 = getelementptr inbounds i8, ptr %109, i64 1
  %111 = load ptr, ptr %8, align 8, !tbaa !8
  %112 = load i64, ptr %12, align 8, !tbaa !29
  %113 = getelementptr inbounds nuw i8, ptr %111, i64 %112
  call void @png_set_sCAL_s(ptr noundef %103, ptr noundef %104, i32 noundef %108, ptr noundef %110, ptr noundef %113)
  store i32 3, ptr %4, align 4
  store i32 1, ptr %11, align 4
  br label %116

114:                                              ; preds = %100
  br label %115

115:                                              ; preds = %114, %92
  store i32 0, ptr %11, align 4
  br label %116

116:                                              ; preds = %115, %102
  call void @llvm.lifetime.end.p0(i64 8, ptr %12) #7
  %117 = load i32, ptr %11, align 4
  switch i32 %117, label %121 [
    i32 0, label %118
  ]

118:                                              ; preds = %116
  br label %119

119:                                              ; preds = %118, %78
  br label %120

120:                                              ; preds = %119, %70
  store i32 0, ptr %4, align 4
  store i32 1, ptr %11, align 4
  br label %121

121:                                              ; preds = %120, %116, %49, %36, %20
  call void @llvm.lifetime.end.p0(i64 4, ptr %10) #7
  call void @llvm.lifetime.end.p0(i64 8, ptr %9) #7
  call void @llvm.lifetime.end.p0(i64 8, ptr %8) #7
  %122 = load i32, ptr %4, align 4
  ret i32 %122
}