; Function Attrs: nounwind uwtable
define internal range(i32 0, 4) i32 @png_handle_sCAL(ptr noalias noundef %0, ptr noalias noundef %1, i32 noundef %2) #0 {
  %4 = alloca i64, align 8
  %5 = alloca i32, align 4
  call void @llvm.lifetime.start.p0(i64 8, ptr nonnull %4) #12
  call void @llvm.lifetime.start.p0(i64 4, ptr nonnull %5) #12
  %6 = add i32 %2, 1
  %7 = zext i32 %6 to i64
  %8 = getelementptr inbounds nuw i8, ptr %0, i64 1176
  %9 = load ptr, ptr %8, align 8, !tbaa !104, !alias.scope !202
  %10 = getelementptr inbounds nuw i8, ptr %0, i64 1128
  %11 = load i64, ptr %10, align 8, !tbaa !46, !alias.scope !202
  %12 = icmp ult i64 %11, %7
  br i1 %12, label %23, label %13

13:                                               ; preds = %3
  %.not.i = icmp eq ptr %9, null
  br i1 %.not.i, label %19, label %14

14:                                               ; preds = %13
  %15 = getelementptr inbounds nuw i8, ptr %0, i64 1184
  %16 = load i64, ptr %15, align 8, !tbaa !108, !alias.scope !202
  %17 = icmp ult i64 %16, %7
  br i1 %17, label %18, label %png_crc_read.exit

18:                                               ; preds = %14
  tail call void @llvm.memset.p0.i64(ptr noundef nonnull align 8 dereferenceable(16) %8, i8 0, i64 16, i1 false), !alias.scope !202
  tail call void @png_free(ptr noundef nonnull %0, ptr noundef nonnull %9) #12
  br label %19

19:                                               ; preds = %18, %13
  %20 = tail call noalias ptr @png_malloc_base(ptr noundef nonnull %0, i64 noundef range(i64 0, 4294967296) %7) #12
  %.not27.i = icmp eq ptr %20, null
  br i1 %.not27.i, label %23, label %21

21:                                               ; preds = %19
  tail call void @llvm.memset.p0.i64(ptr nonnull align 1 %20, i8 0, i64 range(i64 0, 4294967296) %7, i1 false)
  store ptr %20, ptr %8, align 8, !tbaa !104, !alias.scope !202
  %22 = getelementptr inbounds nuw i8, ptr %0, i64 1184
  store i64 %7, ptr %22, align 8, !tbaa !108, !alias.scope !202
  br label %png_crc_read.exit

23:                                               ; preds = %3, %19
  %24 = tail call fastcc range(i32 0, 2) i32 @png_crc_finish_critical(ptr noundef nonnull %0, i32 noundef %2, i32 noundef 0)
  tail call void @png_chunk_benign_error(ptr noundef nonnull %0, ptr noundef nonnull @.str.22) #12
  br label %58

png_crc_read.exit:                                ; preds = %21, %14
  %.021.i = phi ptr [ %20, %21 ], [ %9, %14 ]
  %25 = zext i32 %2 to i64
  tail call void @png_read_data(ptr noundef nonnull %0, ptr noundef nonnull %.021.i, i64 noundef %25) #12
  tail call void @png_calculate_crc(ptr noundef nonnull %0, ptr noundef nonnull %.021.i, i64 noundef %25) #12
  %26 = getelementptr inbounds nuw i8, ptr %.021.i, i64 %25
  store i8 0, ptr %26, align 1, !tbaa !3
  %27 = tail call fastcc range(i32 0, 2) i32 @png_crc_finish_critical(ptr noundef nonnull %0, i32 noundef 0, i32 noundef 0)
  %.not = icmp eq i32 %27, 0
  br i1 %.not, label %28, label %58

28:                                               ; preds = %png_crc_read.exit
  %29 = load i8, ptr %.021.i, align 1, !tbaa !3
  %.off = add i8 %29, -1
  %switch = icmp ult i8 %.off, 2
  br i1 %switch, label %31, label %30

30:                                               ; preds = %28
  tail call void @png_chunk_benign_error(ptr noundef nonnull %0, ptr noundef nonnull @.str.44) #12
  br label %58

31:                                               ; preds = %28
  store i64 1, ptr %4, align 8, !tbaa !168
  store i32 0, ptr %5, align 4, !tbaa !59
  %32 = call i32 @png_check_fp_number(ptr noundef nonnull %.021.i, i64 noundef %25, ptr noundef nonnull %5, ptr noundef nonnull %4) #12
  %33 = icmp eq i32 %32, 0
  br i1 %33, label %40, label %34

34:                                               ; preds = %31
  %35 = load i64, ptr %4, align 8, !tbaa !168
  %.not40 = icmp ult i64 %35, %25
  br i1 %.not40, label %36, label %40

36:                                               ; preds = %34
  %37 = add nuw nsw i64 %35, 1
  store i64 %37, ptr %4, align 8, !tbaa !168
  %38 = getelementptr inbounds nuw i8, ptr %.021.i, i64 %35
  %39 = load i8, ptr %38, align 1, !tbaa !3
  %.not41 = icmp eq i8 %39, 0
  br i1 %.not41, label %41, label %40

40:                                               ; preds = %36, %34, %31
  call void @png_chunk_benign_error(ptr noundef nonnull %0, ptr noundef nonnull @.str.45) #12
  br label %58

41:                                               ; preds = %36
  %42 = load i32, ptr %5, align 4, !tbaa !59
  %43 = and i32 %42, 392
  %.not42 = icmp eq i32 %43, 264
  br i1 %.not42, label %45, label %44

44:                                               ; preds = %41
  call void @png_chunk_benign_error(ptr noundef nonnull %0, ptr noundef nonnull @.str.46) #12
  br label %58

45:                                               ; preds = %41
  store i32 0, ptr %5, align 4, !tbaa !59
  %46 = call i32 @png_check_fp_number(ptr noundef nonnull %.021.i, i64 noundef %25, ptr noundef nonnull %5, ptr noundef nonnull %4) #12
  %47 = icmp ne i32 %46, 0
  %48 = load i64, ptr %4, align 8
  %.not43 = icmp eq i64 %48, %25
  %or.cond = select i1 %47, i1 %.not43, i1 false
  br i1 %or.cond, label %50, label %49

49:                                               ; preds = %45
  call void @png_chunk_benign_error(ptr noundef nonnull %0, ptr noundef nonnull @.str.47) #12
  br label %58

50:                                               ; preds = %45
  %51 = load i32, ptr %5, align 4, !tbaa !59
  %52 = and i32 %51, 392
  %.not44 = icmp eq i32 %52, 264
  br i1 %.not44, label %.critedge, label %53

53:                                               ; preds = %50
  call void @png_chunk_benign_error(ptr noundef nonnull %0, ptr noundef nonnull @.str.48) #12
  br label %58

.critedge:                                        ; preds = %50
  %54 = load i8, ptr %.021.i, align 1, !tbaa !3
  %55 = zext i8 %54 to i32
  %56 = getelementptr inbounds nuw i8, ptr %.021.i, i64 1
  %57 = getelementptr inbounds nuw i8, ptr %.021.i, i64 %37
  call void @png_set_sCAL_s(ptr noundef nonnull %0, ptr noundef %1, i32 noundef %55, ptr noundef nonnull %56, ptr noundef nonnull %57) #12
  br label %58

58:                                               ; preds = %40, %44, %49, %53, %.critedge, %png_crc_read.exit, %30, %23
  %.0 = phi i32 [ 0, %23 ], [ 0, %30 ], [ 0, %png_crc_read.exit ], [ 3, %.critedge ], [ 0, %53 ], [ 0, %49 ], [ 0, %44 ], [ 0, %40 ]
  call void @llvm.lifetime.end.p0(i64 4, ptr nonnull %5) #12
  call void @llvm.lifetime.end.p0(i64 8, ptr nonnull %4) #12
  ret i32 %.0
}